; Function Attrs: mustprogress uwtable
define hidden void @_ZN3smt18quantifier_manager3addEP10quantifierj(ptr noundef nonnull align 8 captures(none) dereferenceable(13) %0, ptr noundef %1, i32 noundef %2) local_unnamed_addr #4 align 2 {
  %4 = alloca %"struct.obj_map<quantifier, q::quantifier_stat *>::key_data", align 8
  %5 = getelementptr inbounds nuw i8, ptr %0, i64 12
  %6 = load i8, ptr %5, align 4, !tbaa !89, !range !38, !noundef !39
  %7 = trunc nuw i8 %6 to i1
  br i1 %7, label %.preheader, label %20

.preheader:                                       ; preds = %3
  %8 = getelementptr inbounds nuw i8, ptr %0, i64 8
  %9 = load i32, ptr %8, align 8, !tbaa !88
  %10 = add i32 %9, -1
  store i32 %10, ptr %8, align 8, !tbaa !88
  %.not2 = icmp eq i32 %9, 0
  br i1 %.not2, label %._crit_edge, label %.lr.ph

.lr.ph:                                           ; preds = %.preheader, %.lr.ph
  %11 = load ptr, ptr %0, align 8, !tbaa !82
  %12 = getelementptr inbounds nuw i8, ptr %11, i64 1160
  %13 = load ptr, ptr %12, align 8, !tbaa !85
  %14 = load ptr, ptr %13, align 8, !tbaa !56
  %15 = getelementptr inbounds nuw i8, ptr %14, i64 152
  %16 = load ptr, ptr %15, align 8
  tail call void %16(ptr noundef nonnull align 8 dereferenceable(8) %13)
  %17 = getelementptr inbounds nuw i8, ptr %11, i64 24
  tail call void @_ZN3smt8qi_queue10push_scopeEv(ptr noundef nonnull align 8 dereferenceable(1048) %17)
  %18 = load i32, ptr %8, align 8, !tbaa !88
  %19 = add i32 %18, -1
  store i32 %19, ptr %8, align 8, !tbaa !88
  %.not = icmp eq i32 %18, 0
  br i1 %.not, label %._crit_edge, label %.lr.ph, !llvm.loop !634

._crit_edge:                                      ; preds = %.lr.ph, %.preheader
  store i8 0, ptr %5, align 4, !tbaa !89
  br label %20

20:                                               ; preds = %._crit_edge, %3
  %21 = load ptr, ptr %0, align 8, !tbaa !82
  %22 = getelementptr inbounds nuw i8, ptr %21, i64 1096
  %23 = tail call noundef ptr @_ZN1q19quantifier_stat_genclEP10quantifierj(ptr noundef nonnull align 8 dereferenceable(52) %22, ptr noundef %1, i32 noundef %2)
  %24 = getelementptr inbounds nuw i8, ptr %21, i64 1072
  call void @llvm.lifetime.start.p0(i64 16, ptr nonnull %4) #22
  store ptr %1, ptr %4, align 8, !tbaa !635
  %25 = getelementptr inbounds nuw i8, ptr %4, i64 8
  store ptr %23, ptr %25, align 8, !tbaa !639
  call void @_ZN14core_hashtableIN7obj_mapI10quantifierPN1q15quantifier_statEE13obj_map_entryE8obj_hashINS5_8key_dataEE10default_eqIS8_EE6insertEOS8_(ptr noundef nonnull align 8 dereferenceable(24) %24, ptr noundef nonnull align 8 dereferenceable(16) %4)
  call void @llvm.lifetime.end.p0(i64 16, ptr nonnull %4) #22
  %26 = getelementptr inbounds nuw i8, ptr %21, i64 1152
  %27 = load ptr, ptr %26, align 8, !tbaa !580
  %28 = icmp eq ptr %27, null
  br i1 %28, label %35, label %29

29:                                               ; preds = %20
  %30 = getelementptr inbounds i8, ptr %27, i64 -4
  %31 = load i32, ptr %30, align 4, !tbaa !61
  %32 = getelementptr inbounds i8, ptr %27, i64 -8
  %33 = load i32, ptr %32, align 4, !tbaa !61
  %34 = icmp eq i32 %31, %33
  br i1 %34, label %35, label %_ZN3smt18quantifier_manager3imp3addEP10quantifierj.exit

35:                                               ; preds = %29, %20
  call void @_ZN6vectorIP10quantifierLb0EjE13expand_vectorEv(ptr noundef nonnull align 8 dereferenceable(8) %26)
  %.pre.i.i = load ptr, ptr %26, align 8, !tbaa !580
  %.phi.trans.insert.i.i = getelementptr inbounds i8, ptr %.pre.i.i, i64 -4
  %.pre2.i.i = load i32, ptr %.phi.trans.insert.i.i, align 4, !tbaa !61
  br label %_ZN3smt18quantifier_manager3imp3addEP10quantifierj.exit

_ZN3smt18quantifier_manager3imp3addEP10quantifierj.exit: ; preds = %29, %35
  %36 = phi i32 [ %.pre2.i.i, %35 ], [ %31, %29 ]
  %37 = phi ptr [ %.pre.i.i, %35 ], [ %27, %29 ]
  %38 = getelementptr inbounds i8, ptr %37, i64 -4
  %39 = zext i32 %36 to i64
  %40 = getelementptr inbounds nuw ptr, ptr %37, i64 %39
  store ptr %1, ptr %40, align 8, !tbaa !640
  %41 = add i32 %36, 1
  store i32 %41, ptr %38, align 4, !tbaa !61
  %42 = getelementptr inbounds nuw i8, ptr %21, i64 1160
  %43 = load ptr, ptr %42, align 8, !tbaa !85
  %44 = load ptr, ptr %43, align 8, !tbaa !56
  %45 = getelementptr inbounds nuw i8, ptr %44, i64 32
  %46 = load ptr, ptr %45, align 8
  call void %46(ptr noundef nonnull align 8 dereferenceable(8) %43, ptr noundef %1)
  ret void
}